target datalayout = "e-m:e-p270:32:32-p271:32:32-p272:64:64-i64:64-i128:128-f80:128-n8:16:32:64-S128"
target triple = "x86_64-pc-linux-gnu"

%struct.H5VL_optional_args_t = type { i32, ptr }
%struct.H5VL_native_attr_iterate_old_t = type { i64, ptr, ptr, ptr }

@.str = private unnamed_addr constant [109 x i8] c"generated/home/dtcxzyw/WorkSpace/Projects/compilers/llvm-opt-benchmark/bench/hdf5/hdf5/src/H5VLnative_attr.c\00", align 1
@H5E_VOL_g = external global i64, align 8
@H5E_UNSUPPORTED_g = external global i64, align 8
@H5E_BADITER_g = external global i64, align 8
@__func__.H5VL__native_attr_optional = private unnamed_addr constant [27 x i8] c"H5VL__native_attr_optional\00", align 1
@.str.35 = private unnamed_addr constant [32 x i8] c"error iterating over attributes\00", align 1
@.str.36 = private unnamed_addr constant [27 x i8] c"invalid optional operation\00", align 1

; Function Attrs: nounwind uwtable
define i32 @H5VL__native_attr_optional(ptr noundef %0, ptr noundef %1, i64 noundef %2, ptr noundef %3) #0 {
  %5 = alloca ptr, align 8
  %6 = alloca ptr, align 8
  %7 = alloca i64, align 8
  %8 = alloca ptr, align 8
  %9 = alloca ptr, align 8
  %10 = alloca i32, align 4
  %11 = alloca i8, align 1
  %12 = alloca ptr, align 8
  store ptr %0, ptr %5, align 8
  store ptr %1, ptr %6, align 8
  store i64 %2, ptr %7, align 8
  store ptr %3, ptr %8, align 8
  %13 = load ptr, ptr %6, align 8
  %14 = getelementptr inbounds %struct.H5VL_optional_args_t, ptr %13, i32 0, i32 1
  %15 = load ptr, ptr %14, align 8
  store ptr %15, ptr %9, align 8
  store i32 0, ptr %10, align 4
  store i8 0, ptr %11, align 1
  %16 = load ptr, ptr %6, align 8
  %17 = getelementptr inbounds %struct.H5VL_optional_args_t, ptr %16, i32 0, i32 0
  %18 = load i32, ptr %17, align 8
  switch i32 %18, label %42 [
    i32 0, label %19
  ]

19:                                               ; preds = %4
  %20 = load ptr, ptr %9, align 8
  store ptr %20, ptr %12, align 8
  %21 = load ptr, ptr %12, align 8
  %22 = getelementptr inbounds %struct.H5VL_native_attr_iterate_old_t, ptr %21, i32 0, i32 0
  %23 = load i64, ptr %22, align 8
  %24 = load ptr, ptr %12, align 8
  %25 = getelementptr inbounds %struct.H5VL_native_attr_iterate_old_t, ptr %24, i32 0, i32 1
  %26 = load ptr, ptr %25, align 8
  %27 = load ptr, ptr %12, align 8
  %28 = getelementptr inbounds %struct.H5VL_native_attr_iterate_old_t, ptr %27, i32 0, i32 2
  %29 = load ptr, ptr %28, align 8
  %30 = load ptr, ptr %12, align 8
  %31 = getelementptr inbounds %struct.H5VL_native_attr_iterate_old_t, ptr %30, i32 0, i32 3
  %32 = load ptr, ptr %31, align 8
  %33 = call i32 @H5A__iterate_old(i64 noundef %23, ptr noundef %26, ptr noundef %29, ptr noundef %32)
  store i32 %33, ptr %10, align 4
  %34 = icmp slt i32 %33, 0
  br i1 %34, label %35, label %41

35:                                               ; preds = %19
  br label %36

36:                                               ; preds = %35
  %37 = load i64, ptr @H5E_VOL_g, align 8
  %38 = load i64, ptr @H5E_BADITER_g, align 8
  %39 = call i32 (ptr, ptr, i32, i64, i64, ptr, ...) @H5E_printf_stack(ptr noundef @.str, ptr noundef @__func__.H5VL__native_attr_optional, i32 noundef 566, i64 noundef %37, i64 noundef %38, ptr noundef @.str.35)
  br label %40

40:                                               ; preds = %36
  br label %41

41:                                               ; preds = %40, %19
  br label %57

42:                                               ; preds = %4
  br label %43

43:                                               ; preds = %42
  br label %44

44:                                               ; preds = %43
  br label %45

45:                                               ; preds = %44
  %46 = load i64, ptr @H5E_VOL_g, align 8
  %47 = load i64, ptr @H5E_UNSUPPORTED_g, align 8
  %48 = call i32 (ptr, ptr, i32, i64, i64, ptr, ...) @H5E_printf_stack(ptr noundef @.str, ptr noundef @__func__.H5VL__native_attr_optional, i32 noundef 573, i64 noundef %46, i64 noundef %47, ptr noundef @.str.36)
  br label %49

49:                                               ; preds = %45
  store i8 1, ptr %11, align 1
  %50 = load i8, ptr %11, align 1
  %51 = trunc i8 %50 to i1
  %52 = zext i1 %51 to i8
  store i8 %52, ptr %11, align 1
  br label %53

53:                                               ; preds = %49
  br label %54

54:                                               ; preds = %53
  store i32 -1, ptr %10, align 4
  br label %58

55:                                               ; No predecessors!
  br label %56

56:                                               ; preds = %55
  br label %57

57:                                               ; preds = %56, %41
  br label %58

58:                                               ; preds = %57, %54
  %59 = load i32, ptr %10, align 4
  ret i32 %59
}