; Function Attrs: nounwind uwtable
define i32 @H5VL__native_attr_optional(ptr nocapture noundef readnone %0, ptr nocapture noundef readonly %1, i64 noundef %2, ptr nocapture noundef readnone %3) local_unnamed_addr #0 {
  %5 = load i32, ptr %1, align 8
  %cond = icmp eq i32 %5, 0
  br i1 %cond, label %6, label %22

6:                                                ; preds = %4
  %7 = getelementptr inbounds i8, ptr %1, i64 8
  %8 = load ptr, ptr %7, align 8
  %9 = load i64, ptr %8, align 8
  %10 = getelementptr inbounds i8, ptr %8, i64 8
  %11 = load ptr, ptr %10, align 8
  %12 = getelementptr inbounds i8, ptr %8, i64 16
  %13 = load ptr, ptr %12, align 8
  %14 = getelementptr inbounds i8, ptr %8, i64 24
  %15 = load ptr, ptr %14, align 8
  %16 = tail call i32 @H5A__iterate_old(i64 noundef %9, ptr noundef %11, ptr noundef %13, ptr noundef %15) #5
  %17 = icmp slt i32 %16, 0
  br i1 %17, label %18, label %26

18:                                               ; preds = %6
  %19 = load i64, ptr @H5E_VOL_g, align 8
  %20 = load i64, ptr @H5E_BADITER_g, align 8
  %21 = tail call i32 (ptr, ptr, i32, i64, i64, ptr, ...) @H5E_printf_stack(ptr noundef nonnull @.str, ptr noundef nonnull @__func__.H5VL__native_attr_optional, i32 noundef 566, i64 noundef %19, i64 noundef %20, ptr noundef nonnull @.str.35) #5
  br label %26

22:                                               ; preds = %4
  %23 = load i64, ptr @H5E_VOL_g, align 8
  %24 = load i64, ptr @H5E_UNSUPPORTED_g, align 8
  %25 = tail call i32 (ptr, ptr, i32, i64, i64, ptr, ...) @H5E_printf_stack(ptr noundef nonnull @.str, ptr noundef nonnull @__func__.H5VL__native_attr_optional, i32 noundef 573, i64 noundef %23, i64 noundef %24, ptr noundef nonnull @.str.36) #5
  br label %26

26:                                               ; preds = %18, %6, %22
  %.0 = phi i32 [ %16, %18 ], [ %16, %6 ], [ -1, %22 ]
  ret i32 %.0
}